; Function Attrs: mustprogress nounwind uwtable
define internal void @_ZN12_GLOBAL__N_122RangeConstraintManagerD0Ev(ptr noundef nonnull align 8 dereferenceable(192) %0) unnamed_addr #1 align 2 {
  store ptr getelementptr inbounds inrange(-16, 200) (i8, ptr @_ZTVN12_GLOBAL__N_122RangeConstraintManagerE, i64 16), ptr %0, align 8
  %2 = getelementptr inbounds i8, ptr %0, i64 176
  tail call void @_ZN4llvm14FoldingSetBaseD2Ev(ptr noundef nonnull align 8 dereferenceable(16) %2) #22
  %3 = getelementptr inbounds i8, ptr %0, i64 80
  tail call void @_ZN4llvm24SpecificBumpPtrAllocatorIN5clang4ento8RangeSet13ContainerTypeEE10DestroyAllEv(ptr noundef nonnull align 8 dereferenceable(96) %3)
  tail call void @_ZN4llvm20BumpPtrAllocatorImplINS_15MallocAllocatorELm4096ELm4096ELm128EED2Ev(ptr noundef nonnull align 8 dereferenceable(96) %3) #22
  tail call void @_ZN5clang4ento23RangedConstraintManagerD2Ev(ptr noundef nonnull align 8 dereferenceable(72) %0) #22
  tail call void @_ZdlPvm(ptr noundef nonnull %0, i64 noundef 192) #25
  ret void
}